# EdUni CA #2 July 2015
Certificate:
    Data:
        Version: 3 (0x2)
        Serial Number: 3000 (0xbb8)
    Signature Algorithm: sha256WithRSAEncryption
        Issuer: C=GB, ST=Scotland, L=Edinburgh, O=University of Edinburgh, OU=University of Edinburgh, CN=University of Edinburgh CA 2/emailAddress=postmaster@ed.ac.uk
        Validity
            Not Before: Jul 22 11:05:05 2015 GMT
            Not After : Jul 17 11:05:05 2035 GMT
        Subject: C=GB, ST=Scotland, L=Edinburgh, O=University of Edinburgh, OU=University of Edinburgh, CN=University of Edinburgh CA 2/emailAddress=postmaster@ed.ac.uk
        Subject Public Key Info:
            Public Key Algorithm: rsaEncryption
                Public-Key: (2048 bit)
                Modulus:
                    00:bc:51:ab:7d:7e:c9:82:44:6e:fa:5f:37:fb:c5:
                    6b:ef:df:04:40:ea:c3:5a:f9:47:3a:36:44:d8:a4:
                    73:4b:5c:05:79:02:a6:8c:b6:46:50:b0:f6:ee:ea:
                    8b:63:1a:9c:3a:ea:2e:e8:f0:aa:f9:9c:2f:2c:84:
                    c6:da:76:da:96:03:d3:ee:e6:a9:92:db:c7:70:14:
                    fc:65:36:57:16:60:d6:f1:19:45:99:05:17:f5:90:
                    a1:54:e7:b6:ea:e9:ce:68:e3:b9:18:45:96:c2:bc:
                    63:48:ef:44:a8:09:19:4d:67:a0:21:d7:e6:de:5d:
                    ec:0c:f3:ad:a6:16:51:df:18:b1:8d:93:cd:f1:a2:
                    b4:30:0c:0d:60:1c:c9:62:3b:03:90:aa:b2:d7:09:
                    64:8a:cf:51:66:ca:df:2c:6c:f5:37:eb:b3:34:c6:
                    da:6a:c1:1a:5d:30:f5:35:7c:3d:2f:a9:54:5b:0c:
                    eb:20:4d:f1:58:4b:54:3f:39:aa:a2:e2:95:f2:73:
                    2d:66:25:26:13:36:60:dc:39:fc:30:ae:e6:86:3f:
                    34:b4:93:b5:b5:7e:bd:07:17:dd:30:23:83:44:77:
                    d5:b0:e6:e8:f0:43:76:8a:3e:14:bc:5f:84:c1:c2:
                    01:16:72:04:cf:5b:da:ca:2b:ad:90:89:53:59:14:
                    41:21
                Exponent: 65537 (0x10001)
        X509v3 extensions:
            X509v3 Subject Key Identifier: 
                A1:CA:2B:46:30:79:F1:E4:49:E6:A4:65:72:04:E3:E3:73:45:85:07
            X509v3 Authority Key Identifier: 
                keyid:A1:CA:2B:46:30:79:F1:E4:49:E6:A4:65:72:04:E3:E3:73:45:85:07
                DirName:/C=GB/ST=Scotland/L=Edinburgh/O=University of Edinburgh/OU=University of Edinburgh/CN=University of Edinburgh CA 2/emailAddress=postmaster@ed.ac.uk
                serial:0B:B8

            X509v3 Basic Constraints: 
                CA:TRUE
    Signature Algorithm: sha256WithRSAEncryption
         0e:75:f1:3b:47:38:63:75:5d:97:c4:61:08:ac:40:a1:7f:0e:
         c6:86:39:f6:ef:94:65:4e:d2:9c:ca:07:49:17:c0:94:47:01:
         51:95:3c:b6:d8:80:25:97:4f:97:40:34:0f:1b:cb:60:0d:78:
         b1:f5:4f:88:3b:82:db:4f:b4:61:31:91:fa:dd:d3:8a:0d:c0:
         9f:8d:e7:33:33:eb:fe:ab:2d:29:24:9a:cc:57:a8:d6:7e:3b:
         a3:fd:34:85:8c:81:3c:03:92:54:98:76:b0:3b:f1:37:62:c1:
         e1:ef:c3:e9:5f:d0:40:d5:1f:e5:83:a4:5c:df:37:f1:2a:2d:
         e5:87:0c:48:c7:c2:28:f0:32:7a:a7:49:62:ef:d5:38:b7:53:
         69:63:95:84:2c:e4:45:a5:ff:d5:5d:6d:6a:49:c8:67:1d:7b:
         1c:1e:8b:c1:c8:bb:c7:a3:dd:c5:ad:d6:a8:42:55:31:87:aa:
         cf:67:b6:a2:50:0f:e6:52:52:35:29:a6:42:77:82:22:46:73:
         ee:15:2d:cc:a4:21:7d:92:51:2c:33:91:e4:9e:0a:a2:36:c3:
         7c:16:2c:36:23:91:a6:18:e9:75:c0:85:2e:39:df:03:ea:32:
         8d:76:4f:e3:8c:e6:54:cd:4d:5e:8d:26:18:f5:a2:b1:f7:a6:
         6e:3e:e5:32
-----BEGIN CERTIFICATE-----
MIIFKzCCBBOgAwIBAgICC7gwDQYJKoZIhvcNAQELBQAwgcMxCzAJBgNVBAYTAkdC
MREwDwYDVQQIEwhTY290bGFuZDESMBAGA1UEBxMJRWRpbmJ1cmdoMSAwHgYDVQQK
ExdVbml2ZXJzaXR5IG9mIEVkaW5idXJnaDEgMB4GA1UECxMXVW5pdmVyc2l0eSBv
ZiBFZGluYnVyZ2gxJTAjBgNVBAMTHFVuaXZlcnNpdHkgb2YgRWRpbmJ1cmdoIENB
IDIxIjAgBgkqhkiG9w0BCQEWE3Bvc3RtYXN0ZXJAZWQuYWMudWswHhcNMTUwNzIy
MTEwNTA1WhcNMzUwNzE3MTEwNTA1WjCBwzELMAkGA1UEBhMCR0IxETAPBgNVBAgT
CFNjb3RsYW5kMRIwEAYDVQQHEwlFZGluYnVyZ2gxIDAeBgNVBAoTF1VuaXZlcnNp
dHkgb2YgRWRpbmJ1cmdoMSAwHgYDVQQLExdVbml2ZXJzaXR5IG9mIEVkaW5idXJn
aDElMCMGA1UEAxMcVW5pdmVyc2l0eSBvZiBFZGluYnVyZ2ggQ0EgMjEiMCAGCSqG
SIb3DQEJARYTcG9zdG1hc3RlckBlZC5hYy51azCCASIwDQYJKoZIhvcNAQEBBQAD
ggEPADCCAQoCggEBALxRq31+yYJEbvpfN/vFa+/fBEDqw1r5Rzo2RNikc0tcBXkC
poy2RlCw9u7qi2ManDrqLujwqvmcLyyExtp22pYD0+7mqZLbx3AU/GU2VxZg1vEZ
RZkFF/WQoVTnturpzmjjuRhFlsK8Y0jvRKgJGU1noCHX5t5d7AzzraYWUd8YsY2T
zfGitDAMDWAcyWI7A5CqstcJZIrPUWbK3yxs9TfrszTG2mrBGl0w9TV8PS+pVFsM
6yBN8VhLVD85qqLilfJzLWYlJhM2YNw5/DCu5oY/NLSTtbV+vQcX3TAjg0R31bDm
6PBDdoo+FLxfhMHCARZyBM9b2sorrZCJU1kUQSECAwEAAaOCASUwggEhMB0GA1Ud
DgQWBBShyitGMHnx5EnmpGVyBOPjc0WFBzCB8QYDVR0jBIHpMIHmgBShyitGMHnx
5EnmpGVyBOPjc0WFB6GByaSBxjCBwzELMAkGA1UEBhMCR0IxETAPBgNVBAgTCFNj
b3RsYW5kMRIwEAYDVQQHEwlFZGluYnVyZ2gxIDAeBgNVBAoTF1VuaXZlcnNpdHkg
b2YgRWRpbmJ1cmdoMSAwHgYDVQQLExdVbml2ZXJzaXR5IG9mIEVkaW5idXJnaDEl
MCMGA1UEAxMcVW5pdmVyc2l0eSBvZiBFZGluYnVyZ2ggQ0EgMjEiMCAGCSqGSIb3
DQEJARYTcG9zdG1hc3RlckBlZC5hYy51a4ICC7gwDAYDVR0TBAUwAwEB/zANBgkq
hkiG9w0BAQsFAAOCAQEADnXxO0c4Y3Vdl8RhCKxAoX8OxoY59u+UZU7SnMoHSRfA
lEcBUZU8ttiAJZdPl0A0DxvLYA14sfVPiDuC20+0YTGR+t3Tig3An43nMzPr/qst
KSSazFeo1n47o/00hYyBPAOSVJh2sDvxN2LB4e/D6V/QQNUf5YOkXN838Sot5YcM
SMfCKPAyeqdJYu/VOLdTaWOVhCzkRaX/1V1taknIZx17HB6Lwci7x6Pdxa3WqEJV
MYeqz2e2olAP5lJSNSmmQneCIkZz7hUtzKQhfZJRLDOR5J4KojbDfBYsNiORphjp
dcCFLjnfA+oyjXZP44zmVM1NXo0mGPWisfembj7lMg==
-----END CERTIFICATE-----
